; Function Attrs: mustprogress uwtable
define void @_ZN7rocksdb13MetaBlockIter8PrevImplEv(ptr noundef nonnull align 8 dereferenceable(320) %this) unnamed_addr #1 align 2 {
entry:
  %is_shared = alloca i8, align 1
  %current_ = getelementptr inbounds i8, ptr %this, i64 68
  %0 = load i32, ptr %current_, align 4
  %restart_index_ = getelementptr inbounds i8, ptr %this, i64 60
  %data_.i = getelementptr inbounds i8, ptr %this, i64 48
  %1 = load ptr, ptr %data_.i, align 8
  %restarts_.i = getelementptr inbounds i8, ptr %this, i64 64
  %2 = load i32, ptr %restarts_.i, align 8
  %idx.ext.i = zext i32 %2 to i64
  %add.ptr.i = getelementptr inbounds i8, ptr %1, i64 %idx.ext.i
  %restart_index_.promoted = load i32, ptr %restart_index_, align 4
  %conv.i15 = zext i32 %restart_index_.promoted to i64
  %mul.i16 = shl nuw nsw i64 %conv.i15, 2
  %add.ptr2.i17 = getelementptr inbounds i8, ptr %add.ptr.i, i64 %mul.i16
  %result.0.copyload.i.i18 = load i32, ptr %add.ptr2.i17, align 1
  %cmp.not19 = icmp ult i32 %result.0.copyload.i.i18, %0
  br i1 %cmp.not19, label %while.end, label %while.body

while.body:                                       ; preds = %entry, %if.end
  %indvars.iv = phi i64 [ %indvars.iv.next, %if.end ], [ %conv.i15, %entry ]
  %cmp3 = icmp eq i64 %indvars.iv, 0
  br i1 %cmp3, label %if.then, label %if.end

if.then:                                          ; preds = %while.body
  store i32 %2, ptr %current_, align 4
  %num_restarts_ = getelementptr inbounds i8, ptr %this, i64 56
  %3 = load i32, ptr %num_restarts_, align 8
  store i32 %3, ptr %restart_index_, align 4
  br label %return

if.end:                                           ; preds = %while.body
  %indvars.iv.next = add nsw i64 %indvars.iv, -1
  %indvars = trunc i64 %indvars.iv.next to i32
  store i32 %indvars, ptr %restart_index_, align 4
  %conv.i = shl i64 %indvars.iv.next, 2
  %mul.i = and i64 %conv.i, 17179869180
  %add.ptr2.i = getelementptr inbounds i8, ptr %add.ptr.i, i64 %mul.i
  %result.0.copyload.i.i = load i32, ptr %add.ptr2.i, align 1
  %cmp.not = icmp ult i32 %result.0.copyload.i.i, %0
  br i1 %cmp.not, label %while.end, label %while.body, !llvm.loop !8

while.end:                                        ; preds = %if.end, %entry
  %mul.i.lcssa = phi i64 [ %mul.i16, %entry ], [ %mul.i, %if.end ]
  %add.ptr2.i.le = getelementptr inbounds i8, ptr %add.ptr.i, i64 %mul.i.lcssa
  %key_size_.i.i = getelementptr inbounds i8, ptr %this, i64 88
  store i64 0, ptr %key_size_.i.i, align 8
  %result.0.copyload.i.i.i = load i32, ptr %add.ptr2.i.le, align 1
  %idx.ext.i3 = zext i32 %result.0.copyload.i.i.i to i64
  %add.ptr.i4 = getelementptr inbounds i8, ptr %1, i64 %idx.ext.i3
  %value_.i = getelementptr inbounds i8, ptr %this, i64 216
  store ptr %add.ptr.i4, ptr %value_.i, align 8
  %ref.tmp.sroa.2.0.value_.sroa_idx.i = getelementptr inbounds i8, ptr %this, i64 224
  store i64 0, ptr %ref.tmp.sroa.2.0.value_.sroa_idx.i, align 8
  store i8 0, ptr %is_shared, align 1
  br label %while.cond8

while.cond8:                                      ; preds = %land.rhs, %while.end
  %call9 = call noundef zeroext i1 @_ZN7rocksdb9BlockIterINS_5SliceEE12ParseNextKeyINS_19CheckAndDecodeEntryEEEbPb(ptr noundef nonnull align 8 dereferenceable(320) %this, ptr noundef nonnull %is_shared)
  br i1 %call9, label %land.rhs, label %while.end13

land.rhs:                                         ; preds = %while.cond8
  %4 = load ptr, ptr %value_.i, align 8
  %5 = load i64, ptr %ref.tmp.sroa.2.0.value_.sroa_idx.i, align 8
  %add.ptr.i6 = getelementptr inbounds i8, ptr %4, i64 %5
  %6 = load ptr, ptr %data_.i, align 8
  %sub.ptr.lhs.cast.i = ptrtoint ptr %add.ptr.i6 to i64
  %sub.ptr.rhs.cast.i = ptrtoint ptr %6 to i64
  %sub.ptr.sub.i = sub i64 %sub.ptr.lhs.cast.i, %sub.ptr.rhs.cast.i
  %conv.i8 = trunc i64 %sub.ptr.sub.i to i32
  %cmp11 = icmp ugt i32 %0, %conv.i8
  br i1 %cmp11, label %while.cond8, label %while.end13, !llvm.loop !9

while.end13:                                      ; preds = %while.cond8, %land.rhs
  %cur_entry_idx_ = getelementptr inbounds i8, ptr %this, i64 296
  %7 = load i32, ptr %cur_entry_idx_, align 8
  %dec14 = add nsw i32 %7, -1
  store i32 %dec14, ptr %cur_entry_idx_, align 8
  br label %return

return:                                           ; preds = %while.end13, %if.then
  ret void
}